target datalayout = "e-m:e-p270:32:32-p271:32:32-p272:64:64-i64:64-i128:128-f80:128-n8:16:32:64-S128"
target triple = "x86_64-pc-linux-gnu"

@_ZNSt3__16__itoa16__digits_base_10E = linkonce_odr hidden constant [200 x i8] c"00010203040506070809101112131415161718192021222324252627282930313233343536373839404142434445464748495051525354555657585960616263646566676869707172737475767778798081828384858687888990919293949596979899", comdat, align 16

; Function Attrs: mustprogress nounwind uwtable
define hidden void @_ZNSt3__120__append_nine_digitsB8ne210000EjPc(i32 noundef %0, ptr noundef %1) #0 {
  %3 = alloca i32, align 4
  %4 = alloca ptr, align 8
  %5 = alloca i32, align 4
  %6 = alloca i32, align 4
  %7 = alloca i32, align 4
  %8 = alloca i32, align 4
  store i32 %0, ptr %3, align 4, !tbaa !4
  store ptr %1, ptr %4, align 8, !tbaa !8
  %9 = load i32, ptr %3, align 4, !tbaa !4
  %10 = icmp eq i32 %9, 0
  br i1 %10, label %11, label %13

11:                                               ; preds = %2
  %12 = load ptr, ptr %4, align 8, !tbaa !8
  call void @llvm.memset.p0.i64(ptr align 1 %12, i8 48, i64 9, i1 false)
  br label %59

13:                                               ; preds = %2
  call void @llvm.lifetime.start.p0(i64 4, ptr %5) #7
  store i32 0, ptr %5, align 4, !tbaa !4
  br label %14

14:                                               ; preds = %50, %13
  %15 = load i32, ptr %5, align 4, !tbaa !4
  %16 = icmp ult i32 %15, 5
  br i1 %16, label %18, label %17

17:                                               ; preds = %14
  call void @llvm.lifetime.end.p0(i64 4, ptr %5) #7
  br label %53

18:                                               ; preds = %14
  call void @llvm.lifetime.start.p0(i64 4, ptr %6) #7
  %19 = load i32, ptr %3, align 4, !tbaa !4
  %20 = load i32, ptr %3, align 4, !tbaa !4
  %21 = udiv i32 %20, 10000
  %22 = mul i32 10000, %21
  %23 = sub i32 %19, %22
  store i32 %23, ptr %6, align 4, !tbaa !4
  %24 = load i32, ptr %3, align 4, !tbaa !4
  %25 = udiv i32 %24, 10000
  store i32 %25, ptr %3, align 4, !tbaa !4
  call void @llvm.lifetime.start.p0(i64 4, ptr %7) #7
  %26 = load i32, ptr %6, align 4, !tbaa !4
  %27 = urem i32 %26, 100
  %28 = shl i32 %27, 1
  store i32 %28, ptr %7, align 4, !tbaa !4
  call void @llvm.lifetime.start.p0(i64 4, ptr %8) #7
  %29 = load i32, ptr %6, align 4, !tbaa !4
  %30 = udiv i32 %29, 100
  %31 = shl i32 %30, 1
  store i32 %31, ptr %8, align 4, !tbaa !4
  %32 = load ptr, ptr %4, align 8, !tbaa !8
  %33 = getelementptr inbounds i8, ptr %32, i64 7
  %34 = load i32, ptr %5, align 4, !tbaa !4
  %35 = zext i32 %34 to i64
  %36 = sub i64 0, %35
  %37 = getelementptr inbounds i8, ptr %33, i64 %36
  %38 = load i32, ptr %7, align 4, !tbaa !4
  %39 = zext i32 %38 to i64
  %40 = getelementptr inbounds nuw i8, ptr @_ZNSt3__16__itoa16__digits_base_10E, i64 %39
  call void @llvm.memcpy.p0.p0.i64(ptr align 1 %37, ptr align 1 %40, i64 2, i1 false)
  %41 = load ptr, ptr %4, align 8, !tbaa !8
  %42 = getelementptr inbounds i8, ptr %41, i64 5
  %43 = load i32, ptr %5, align 4, !tbaa !4
  %44 = zext i32 %43 to i64
  %45 = sub i64 0, %44
  %46 = getelementptr inbounds i8, ptr %42, i64 %45
  %47 = load i32, ptr %8, align 4, !tbaa !4
  %48 = zext i32 %47 to i64
  %49 = getelementptr inbounds nuw i8, ptr @_ZNSt3__16__itoa16__digits_base_10E, i64 %48
  call void @llvm.memcpy.p0.p0.i64(ptr align 1 %46, ptr align 1 %49, i64 2, i1 false)
  call void @llvm.lifetime.end.p0(i64 4, ptr %8) #7
  call void @llvm.lifetime.end.p0(i64 4, ptr %7) #7
  call void @llvm.lifetime.end.p0(i64 4, ptr %6) #7
  br label %50

50:                                               ; preds = %18
  %51 = load i32, ptr %5, align 4, !tbaa !4
  %52 = add i32 %51, 4
  store i32 %52, ptr %5, align 4, !tbaa !4
  br label %14, !llvm.loop !14

53:                                               ; preds = %17
  %54 = load i32, ptr %3, align 4, !tbaa !4
  %55 = add i32 48, %54
  %56 = trunc i32 %55 to i8
  %57 = load ptr, ptr %4, align 8, !tbaa !8
  %58 = getelementptr inbounds i8, ptr %57, i64 0
  store i8 %56, ptr %58, align 1, !tbaa !13
  br label %59

59:                                               ; preds = %53, %11
  ret void
}