; Function Attrs: mustprogress nofree norecurse nosync nounwind memory(argmem: write) uwtable
define hidden void @_ZNSt3__120__append_nine_digitsB8ne210000EjPc(i32 noundef %0, ptr noundef writeonly captures(none) %1) local_unnamed_addr #0 {
  %3 = icmp eq i32 %0, 0
  br i1 %3, label %6, label %.preheader

.preheader:                                       ; preds = %2
  %4 = getelementptr inbounds nuw i8, ptr %1, i64 7
  %5 = getelementptr inbounds nuw i8, ptr %1, i64 5
  br label %10

6:                                                ; preds = %2
  tail call void @llvm.memset.p0.i64(ptr noundef nonnull align 1 dereferenceable(9) %1, i8 48, i64 9, i1 false)
  br label %27

7:                                                ; preds = %10
  %8 = trunc i32 %12 to i8
  %9 = add i8 %8, 48
  store i8 %9, ptr %1, align 1, !tbaa !6
  br label %27

10:                                               ; preds = %.preheader, %10
  %11 = phi i1 [ true, %.preheader ], [ false, %10 ]
  %indvars.iv = phi i64 [ 0, %.preheader ], [ 4, %10 ]
  %.019 = phi i32 [ %0, %.preheader ], [ %12, %10 ]
  %12 = udiv i32 %.019, 10000
  %.neg = mul i32 %12, -10000
  %13 = add i32 %.neg, %.019
  %14 = urem i32 %13, 100
  %15 = shl nuw nsw i32 %14, 1
  %16 = udiv i32 %13, 100
  %17 = shl nuw nsw i32 %16, 1
  %18 = sub nsw i64 0, %indvars.iv
  %19 = getelementptr inbounds i8, ptr %4, i64 %18
  %20 = zext nneg i32 %15 to i64
  %21 = getelementptr inbounds nuw i8, ptr @_ZNSt3__16__itoa16__digits_base_10E, i64 %20
  %22 = load i16, ptr %21, align 2
  store i16 %22, ptr %19, align 1
  %23 = getelementptr inbounds i8, ptr %5, i64 %18
  %24 = zext nneg i32 %17 to i64
  %25 = getelementptr inbounds nuw i8, ptr @_ZNSt3__16__itoa16__digits_base_10E, i64 %24
  %26 = load i16, ptr %25, align 2
  store i16 %26, ptr %23, align 1
  br i1 %11, label %10, label %7, !llvm.loop !9

27:                                               ; preds = %7, %6
  ret void
}